target datalayout = "e-m:e-p270:32:32-p271:32:32-p272:64:64-i64:64-i128:128-f80:128-n8:16:32:64-S128"
target triple = "x86_64-pc-linux-gnu"

%"class.icu_77::Hashtable" = type { ptr, %struct.UHashtable }
%struct.UHashtable = type { ptr, ptr, ptr, ptr, ptr, ptr, i32, i32, i32, i32, float, float, i8, i8 }
%"class.icu_77::UVector" = type { %"class.icu_77::UObject", i32, i32, ptr, ptr, ptr }
%"class.icu_77::UObject" = type { ptr }
%"class.icu_77::UnicodeString" = type { %"class.icu_77::Replaceable", %"union.icu_77::UnicodeString::StackBufferOrFields" }
%"class.icu_77::Replaceable" = type { %"class.icu_77::UObject" }
%"union.icu_77::UnicodeString::StackBufferOrFields" = type { %struct.anon.0, [32 x i8] }
%struct.anon.0 = type { i16, i32, i32, ptr }
%"class.icu_77::TransliteratorParser" = type <{ [8 x i8], %"class.icu_77::UVector", %"class.icu_77::UVector", ptr, ptr, i32, %struct.UParseError, [4 x i8], ptr, %"class.icu_77::UVector", %"class.icu_77::Hashtable", %"class.icu_77::UnicodeString", %"class.icu_77::UVector", i16, i16, [4 x i8], %"class.icu_77::UnicodeString", i16, [6 x i8] }>
%struct.UParseError = type { i32, i32, [16 x i16], [16 x i16] }

; Function Attrs: inlinehint mustprogress nounwind uwtable
define linkonce_odr void @_ZN6icu_779HashtableD2Ev(ptr noundef nonnull align 8 dereferenceable(88) %0) unnamed_addr #2 comdat align 2 personality ptr @__gxx_personality_v0 {
  %2 = alloca ptr, align 8
  store ptr %0, ptr %2, align 8, !tbaa !29
  %3 = load ptr, ptr %2, align 8
  %4 = getelementptr inbounds nuw %"class.icu_77::Hashtable", ptr %3, i32 0, i32 0
  %5 = load ptr, ptr %4, align 8, !tbaa !42
  %6 = icmp ne ptr %5, null
  br i1 %6, label %7, label %11

7:                                                ; preds = %1
  %8 = getelementptr inbounds nuw %"class.icu_77::Hashtable", ptr %3, i32 0, i32 0
  %9 = load ptr, ptr %8, align 8, !tbaa !42
  invoke void @uhash_close_77(ptr noundef %9)
          to label %10 unwind label %12

10:                                               ; preds = %7
  br label %11

11:                                               ; preds = %10, %1
  ret void

12:                                               ; preds = %7
  %13 = landingpad { ptr, i32 }
          catch ptr null
  %14 = extractvalue { ptr, i32 } %13, 0
  call void @__clang_call_terminate(ptr %14) #13
  unreachable
}

; Function Attrs: inlinehint mustprogress nounwind uwtable
define linkonce_odr noundef signext i8 @_ZNK6icu_777UVector7isEmptyEv(ptr noundef nonnull align 8 dereferenceable(40) %0) #2 comdat align 2 {
  %2 = alloca ptr, align 8
  store ptr %0, ptr %2, align 8, !tbaa !27
  %3 = load ptr, ptr %2, align 8
  %4 = getelementptr inbounds nuw %"class.icu_77::UVector", ptr %3, i32 0, i32 1
  %5 = load i32, ptr %4, align 8, !tbaa !57
  %6 = icmp eq i32 %5, 0
  %7 = zext i1 %6 to i8
  ret i8 %7
}

; Function Attrs: mustprogress nounwind uwtable
define void @_ZN6icu_7720TransliteratorParserD2Ev(ptr noundef nonnull align 8 dereferenceable(498) %0) unnamed_addr #0 align 2 personality ptr @__gxx_personality_v0 {
  %2 = alloca ptr, align 8
  store ptr %0, ptr %2, align 8, !tbaa !71
  %3 = load ptr, ptr %2, align 8
  br label %4

4:                                                ; preds = %16, %1
  %5 = getelementptr inbounds nuw %"class.icu_77::TransliteratorParser", ptr %3, i32 0, i32 1
  %6 = invoke noundef signext i8 @_ZNK6icu_777UVector7isEmptyEv(ptr noundef nonnull align 8 dereferenceable(40) %5)
          to label %7 unwind label %55

7:                                                ; preds = %4
  %8 = icmp ne i8 %6, 0
  %9 = xor i1 %8, true
  br i1 %9, label %10, label %17

10:                                               ; preds = %7
  %11 = getelementptr inbounds nuw %"class.icu_77::TransliteratorParser", ptr %3, i32 0, i32 1
  %12 = invoke noundef ptr @_ZN6icu_777UVector15orphanElementAtEi(ptr noundef nonnull align 8 dereferenceable(40) %11, i32 noundef 0)
          to label %13 unwind label %55

13:                                               ; preds = %10
  %14 = icmp eq ptr %12, null
  br i1 %14, label %16, label %15

15:                                               ; preds = %13
  call void @_ZN6icu_7723TransliterationRuleDataD1Ev(ptr noundef nonnull align 8 dereferenceable(1168) %12) #11
  call void @_ZN6icu_777UMemorydlEPv(ptr noundef %12) #11
  br label %16

16:                                               ; preds = %15, %13
  br label %4, !llvm.loop !119

17:                                               ; preds = %7
  %18 = getelementptr inbounds nuw %"class.icu_77::TransliteratorParser", ptr %3, i32 0, i32 3
  %19 = load ptr, ptr %18, align 8, !tbaa !118
  %20 = icmp eq ptr %19, null
  br i1 %20, label %22, label %21

21:                                               ; preds = %17
  call void @_ZN6icu_7710UnicodeSetD1Ev(ptr noundef nonnull align 8 dereferenceable(200) %19) #11
  call void @_ZN6icu_777UMemorydlEPv(ptr noundef %19) #11
  br label %22

22:                                               ; preds = %21, %17
  %23 = getelementptr inbounds nuw %"class.icu_77::TransliteratorParser", ptr %3, i32 0, i32 8
  %24 = load ptr, ptr %23, align 8, !tbaa !101
  %25 = icmp eq ptr %24, null
  br i1 %25, label %30, label %26

26:                                               ; preds = %22
  %27 = load ptr, ptr %24, align 8, !tbaa !31
  %28 = getelementptr inbounds ptr, ptr %27, i64 1
  %29 = load ptr, ptr %28, align 8
  call void %29(ptr noundef nonnull align 8 dereferenceable(32) %24) #11
  br label %30

30:                                               ; preds = %26, %22
  br label %31

31:                                               ; preds = %46, %30
  %32 = getelementptr inbounds nuw %"class.icu_77::TransliteratorParser", ptr %3, i32 0, i32 9
  %33 = invoke noundef signext i8 @_ZNK6icu_777UVector7isEmptyEv(ptr noundef nonnull align 8 dereferenceable(40) %32)
          to label %34 unwind label %55

34:                                               ; preds = %31
  %35 = icmp ne i8 %33, 0
  %36 = xor i1 %35, true
  br i1 %36, label %37, label %47

37:                                               ; preds = %34
  %38 = getelementptr inbounds nuw %"class.icu_77::TransliteratorParser", ptr %3, i32 0, i32 9
  %39 = invoke noundef ptr @_ZN6icu_777UVector15orphanElementAtEi(ptr noundef nonnull align 8 dereferenceable(40) %38, i32 noundef 0)
          to label %40 unwind label %55

40:                                               ; preds = %37
  %41 = icmp eq ptr %39, null
  br i1 %41, label %46, label %42

42:                                               ; preds = %40
  %43 = load ptr, ptr %39, align 8, !tbaa !31
  %44 = getelementptr inbounds ptr, ptr %43, i64 1
  %45 = load ptr, ptr %44, align 8
  call void %45(ptr noundef nonnull align 8 dereferenceable(8) %39) #11
  br label %46

46:                                               ; preds = %42, %40
  br label %31, !llvm.loop !120

47:                                               ; preds = %34
  %48 = getelementptr inbounds nuw %"class.icu_77::TransliteratorParser", ptr %3, i32 0, i32 16
  call void @_ZN6icu_7713UnicodeStringD1Ev(ptr noundef nonnull align 8 dereferenceable(64) %48) #11
  %49 = getelementptr inbounds nuw %"class.icu_77::TransliteratorParser", ptr %3, i32 0, i32 12
  call void @_ZN6icu_777UVectorD1Ev(ptr noundef nonnull align 8 dereferenceable(40) %49) #11
  %50 = getelementptr inbounds nuw %"class.icu_77::TransliteratorParser", ptr %3, i32 0, i32 11
  call void @_ZN6icu_7713UnicodeStringD1Ev(ptr noundef nonnull align 8 dereferenceable(64) %50) #11
  %51 = getelementptr inbounds nuw %"class.icu_77::TransliteratorParser", ptr %3, i32 0, i32 10
  call void @_ZN6icu_779HashtableD2Ev(ptr noundef nonnull align 8 dereferenceable(88) %51) #11
  %52 = getelementptr inbounds nuw %"class.icu_77::TransliteratorParser", ptr %3, i32 0, i32 9
  call void @_ZN6icu_777UVectorD1Ev(ptr noundef nonnull align 8 dereferenceable(40) %52) #11
  %53 = getelementptr inbounds nuw %"class.icu_77::TransliteratorParser", ptr %3, i32 0, i32 2
  call void @_ZN6icu_777UVectorD1Ev(ptr noundef nonnull align 8 dereferenceable(40) %53) #11
  %54 = getelementptr inbounds nuw %"class.icu_77::TransliteratorParser", ptr %3, i32 0, i32 1
  call void @_ZN6icu_777UVectorD1Ev(ptr noundef nonnull align 8 dereferenceable(40) %54) #11
  ret void

55:                                               ; preds = %37, %31, %10, %4
  %56 = landingpad { ptr, i32 }
          catch ptr null
  %57 = extractvalue { ptr, i32 } %56, 0
  call void @__clang_call_terminate(ptr %57) #13
  unreachable
}