; Function Attrs: mustprogress nounwind uwtable
define void @_ZN6icu_7720TransliteratorParserD2Ev(ptr noundef nonnull align 8 dereferenceable(498) %0) unnamed_addr #0 align 2 personality ptr @__gxx_personality_v0 {
  %2 = getelementptr inbounds nuw i8, ptr %0, i64 8
  %3 = getelementptr inbounds nuw i8, ptr %0, i64 16
  %4 = load i32, ptr %3, align 8, !tbaa !38
  %.not9 = icmp eq i32 %4, 0
  br i1 %.not9, label %._crit_edge, label %.lr.ph

.lr.ph:                                           ; preds = %1, %9
  %5 = invoke noundef ptr @_ZN6icu_777UVector15orphanElementAtEi(ptr noundef nonnull align 8 dereferenceable(40) %2, i32 noundef 0)
          to label %6 unwind label %.loopexit.split-lp

6:                                                ; preds = %.lr.ph
  %7 = icmp eq ptr %5, null
  br i1 %7, label %9, label %8

8:                                                ; preds = %6
  tail call void @_ZN6icu_7723TransliterationRuleDataD1Ev(ptr noundef nonnull align 8 dereferenceable(1168) %5) #18
  tail call void @_ZN6icu_777UMemorydlEPv(ptr noundef nonnull %5) #18
  br label %9

9:                                                ; preds = %8, %6
  %10 = load i32, ptr %3, align 8, !tbaa !38
  %.not = icmp eq i32 %10, 0
  br i1 %.not, label %._crit_edge, label %.lr.ph, !llvm.loop !82

._crit_edge:                                      ; preds = %9, %1
  %11 = getelementptr inbounds nuw i8, ptr %0, i64 88
  %12 = load ptr, ptr %11, align 8, !tbaa !83
  %13 = icmp eq ptr %12, null
  br i1 %13, label %15, label %14

14:                                               ; preds = %._crit_edge
  tail call void @_ZN6icu_7710UnicodeSetD1Ev(ptr noundef nonnull align 8 dereferenceable(200) %12) #18
  tail call void @_ZN6icu_777UMemorydlEPv(ptr noundef nonnull %12) #18
  br label %15

15:                                               ; preds = %14, %._crit_edge
  %16 = getelementptr inbounds nuw i8, ptr %0, i64 184
  %17 = load ptr, ptr %16, align 8, !tbaa !74
  %18 = icmp eq ptr %17, null
  br i1 %18, label %23, label %19

19:                                               ; preds = %15
  %20 = load ptr, ptr %17, align 8, !tbaa !15
  %21 = getelementptr inbounds nuw i8, ptr %20, i64 8
  %22 = load ptr, ptr %21, align 8
  tail call void %22(ptr noundef nonnull align 8 dereferenceable(32) %17) #18
  br label %23

23:                                               ; preds = %19, %15
  %24 = getelementptr inbounds nuw i8, ptr %0, i64 192
  %25 = getelementptr inbounds nuw i8, ptr %0, i64 200
  %26 = load i32, ptr %25, align 8, !tbaa !38
  %.not510 = icmp eq i32 %26, 0
  br i1 %.not510, label %._crit_edge13, label %.lr.ph12

.lr.ph12:                                         ; preds = %23, %34
  %27 = invoke noundef ptr @_ZN6icu_777UVector15orphanElementAtEi(ptr noundef nonnull align 8 dereferenceable(40) %24, i32 noundef 0)
          to label %28 unwind label %.loopexit

28:                                               ; preds = %.lr.ph12
  %29 = icmp eq ptr %27, null
  br i1 %29, label %34, label %30

30:                                               ; preds = %28
  %31 = load ptr, ptr %27, align 8, !tbaa !15
  %32 = getelementptr inbounds nuw i8, ptr %31, i64 8
  %33 = load ptr, ptr %32, align 8
  tail call void %33(ptr noundef nonnull align 8 dereferenceable(8) %27) #18
  br label %34

34:                                               ; preds = %30, %28
  %35 = load i32, ptr %25, align 8, !tbaa !38
  %.not5 = icmp eq i32 %35, 0
  br i1 %.not5, label %._crit_edge13, label %.lr.ph12, !llvm.loop !84

._crit_edge13:                                    ; preds = %34, %23
  %36 = getelementptr inbounds nuw i8, ptr %0, i64 432
  tail call void @_ZN6icu_7713UnicodeStringD1Ev(ptr noundef nonnull align 8 dereferenceable(64) %36) #18
  %37 = getelementptr inbounds nuw i8, ptr %0, i64 384
  tail call void @_ZN6icu_777UVectorD1Ev(ptr noundef nonnull align 8 dereferenceable(40) %37) #18
  %38 = getelementptr inbounds nuw i8, ptr %0, i64 320
  tail call void @_ZN6icu_7713UnicodeStringD1Ev(ptr noundef nonnull align 8 dereferenceable(64) %38) #18
  %39 = getelementptr inbounds nuw i8, ptr %0, i64 232
  %40 = load ptr, ptr %39, align 8, !tbaa !25
  %.not.i = icmp eq ptr %40, null
  br i1 %.not.i, label %_ZN6icu_779HashtableD2Ev.exit, label %41

41:                                               ; preds = %._crit_edge13
  invoke void @uhash_close_77(ptr noundef nonnull %40)
          to label %_ZN6icu_779HashtableD2Ev.exit unwind label %42

42:                                               ; preds = %41
  %43 = landingpad { ptr, i32 }
          catch ptr null
  %44 = extractvalue { ptr, i32 } %43, 0
  tail call void @__clang_call_terminate(ptr %44) #20
  unreachable

_ZN6icu_779HashtableD2Ev.exit:                    ; preds = %._crit_edge13, %41
  tail call void @_ZN6icu_777UVectorD1Ev(ptr noundef nonnull align 8 dereferenceable(40) %24) #18
  %45 = getelementptr inbounds nuw i8, ptr %0, i64 48
  tail call void @_ZN6icu_777UVectorD1Ev(ptr noundef nonnull align 8 dereferenceable(40) %45) #18
  tail call void @_ZN6icu_777UVectorD1Ev(ptr noundef nonnull align 8 dereferenceable(40) %2) #18
  ret void

.loopexit:                                        ; preds = %.lr.ph12
  %lpad.loopexit = landingpad { ptr, i32 }
          catch ptr null
  br label %46

.loopexit.split-lp:                               ; preds = %.lr.ph
  %lpad.loopexit.split-lp = landingpad { ptr, i32 }
          catch ptr null
  br label %46

46:                                               ; preds = %.loopexit.split-lp, %.loopexit
  %lpad.phi = phi { ptr, i32 } [ %lpad.loopexit, %.loopexit ], [ %lpad.loopexit.split-lp, %.loopexit.split-lp ]
  %47 = extractvalue { ptr, i32 } %lpad.phi, 0
  tail call void @__clang_call_terminate(ptr %47) #20
  unreachable
}